; Function Attrs: mustprogress nounwind uwtable
define hidden void @_ZN6Assimp11IRRImporterD0Ev(ptr noundef nonnull align 8 dereferenceable(188) %this) unnamed_addr #0 align 2 personality ptr @__gxx_personality_v0 {
entry:
  store ptr getelementptr inbounds ({ [8 x ptr] }, ptr @_ZTVN6Assimp11IRRImporterE, i64 0, i32 0, i64 2), ptr %this, align 8
  %lights.i = getelementptr inbounds i8, ptr %this, i64 152
  %0 = load ptr, ptr %lights.i, align 8
  %tobool.not.i.i.i.i = icmp eq ptr %0, null
  br i1 %tobool.not.i.i.i.i, label %_ZNSt6vectorIP7aiLightSaIS1_EED2Ev.exit.i, label %if.then.i.i.i.i

if.then.i.i.i.i:                                  ; preds = %entry
  tail call void @_ZdlPv(ptr noundef nonnull %0) #27
  br label %_ZNSt6vectorIP7aiLightSaIS1_EED2Ev.exit.i

_ZNSt6vectorIP7aiLightSaIS1_EED2Ev.exit.i:        ; preds = %if.then.i.i.i.i, %entry
  %cameras.i = getelementptr inbounds i8, ptr %this, i64 128
  %1 = load ptr, ptr %cameras.i, align 8
  %tobool.not.i.i.i1.i = icmp eq ptr %1, null
  br i1 %tobool.not.i.i.i1.i, label %_ZNSt6vectorIP8aiCameraSaIS1_EED2Ev.exit.i, label %if.then.i.i.i2.i

if.then.i.i.i2.i:                                 ; preds = %_ZNSt6vectorIP7aiLightSaIS1_EED2Ev.exit.i
  tail call void @_ZdlPv(ptr noundef nonnull %1) #27
  br label %_ZNSt6vectorIP8aiCameraSaIS1_EED2Ev.exit.i

_ZNSt6vectorIP8aiCameraSaIS1_EED2Ev.exit.i:       ; preds = %if.then.i.i.i2.i, %_ZNSt6vectorIP7aiLightSaIS1_EED2Ev.exit.i
  %2 = getelementptr inbounds i8, ptr %this, i64 72
  tail call void @_ZN6Assimp10TXmlParserIN4pugi8xml_nodeEE5clearEv(ptr noundef nonnull align 8 dereferenceable(40) %2)
  %mData.i.i.i = getelementptr inbounds i8, ptr %this, i64 88
  %3 = load ptr, ptr %mData.i.i.i, align 8
  %tobool.not.i.i.i.i.i.i = icmp eq ptr %3, null
  br i1 %tobool.not.i.i.i.i.i.i, label %_ZN6Assimp11IRRImporterD2Ev.exit, label %if.then.i.i.i.i.i.i

if.then.i.i.i.i.i.i:                              ; preds = %_ZNSt6vectorIP8aiCameraSaIS1_EED2Ev.exit.i
  tail call void @_ZdlPv(ptr noundef nonnull %3) #27
  br label %_ZN6Assimp11IRRImporterD2Ev.exit

_ZN6Assimp11IRRImporterD2Ev.exit:                 ; preds = %_ZNSt6vectorIP8aiCameraSaIS1_EED2Ev.exit.i, %if.then.i.i.i.i.i.i
  tail call void @_ZNSaIcED2Ev(ptr noundef nonnull align 1 dereferenceable(1) %mData.i.i.i) #26
  tail call void @_ZN6Assimp12BaseImporterD2Ev(ptr noundef nonnull align 8 dereferenceable(72) %this) #26
  tail call void @_ZdlPv(ptr noundef nonnull %this) #27
  ret void
}